; ModuleID = 'source-C-CXX/12/1331.c'
source_filename = "source-C-CXX/12/1331.c"
target datalayout = "e-m:e-p270:32:32-p271:32:32-p272:64:64-i64:64-f80:128-n8:16:32:64-S128"
target triple = "x86_64-pc-linux-gnu"

@.str = private unnamed_addr constant [3 x i8] c"%d\00", align 1
@.str.1 = private unnamed_addr constant [4 x i8] c" %d\00", align 1

; Function Attrs: nofree nounwind sspstrong uwtable
define dso_local i32 @main() local_unnamed_addr #0 {
  %1 = alloca i32, align 4
  %2 = alloca [200000 x i32], align 16
  %3 = alloca [101 x i32], align 16
  %4 = bitcast [101 x i32]* %3 to i8*
  %5 = bitcast i32* %1 to i8*
  call void @llvm.lifetime.start.p0i8(i64 4, i8* nonnull %5) #4
  %6 = bitcast [200000 x i32]* %2 to i8*
  call void @llvm.lifetime.start.p0i8(i64 800000, i8* nonnull %6) #4
  call void @llvm.lifetime.start.p0i8(i64 404, i8* nonnull %4) #4
  %7 = call i32 (i8*, ...) @__isoc99_scanf(i8* getelementptr inbounds ([3 x i8], [3 x i8]* @.str, i64 0, i64 0), i32* nonnull %1)
  call void @llvm.memset.p0i8.i64(i8* noundef nonnull align 16 dereferenceable(404) %4, i8 0, i64 404, i1 false)
  %8 = getelementptr inbounds [200000 x i32], [200000 x i32]* %2, i64 0, i64 0
  %9 = load i32, i32* %1, align 4, !tbaa !5
  %10 = icmp sgt i32 %9, 0
  br i1 %10, label %11, label %41

11:                                               ; preds = %0
  %12 = call i32 (i8*, ...) @__isoc99_scanf(i8* getelementptr inbounds ([3 x i8], [3 x i8]* @.str, i64 0, i64 0), i32* nonnull %8)
  %13 = load i32, i32* %8, align 16, !tbaa !5
  %14 = sext i32 %13 to i64
  %15 = getelementptr inbounds [101 x i32], [101 x i32]* %3, i64 0, i64 %14
  %16 = load i32, i32* %15, align 4, !tbaa !5
  %17 = add nsw i32 %16, 1
  store i32 %17, i32* %15, align 4, !tbaa !5
  %18 = icmp eq i32 %16, 0
  br i1 %18, label %19, label %21

19:                                               ; preds = %11
  %20 = call i32 (i8*, ...) @printf(i8* nonnull dereferenceable(1) getelementptr inbounds ([3 x i8], [3 x i8]* @.str, i64 0, i64 0), i32 %13)
  br label %21

21:                                               ; preds = %19, %11
  %22 = load i32, i32* %1, align 4, !tbaa !5
  %23 = icmp sgt i32 %22, 1
  br i1 %23, label %24, label %41

24:                                               ; preds = %21, %36
  %25 = phi i64 [ %37, %36 ], [ 1, %21 ]
  %26 = getelementptr inbounds [200000 x i32], [200000 x i32]* %2, i64 0, i64 %25
  %27 = call i32 (i8*, ...) @__isoc99_scanf(i8* getelementptr inbounds ([3 x i8], [3 x i8]* @.str, i64 0, i64 0), i32* nonnull %26)
  %28 = load i32, i32* %26, align 4, !tbaa !5
  %29 = sext i32 %28 to i64
  %30 = getelementptr inbounds [101 x i32], [101 x i32]* %3, i64 0, i64 %29
  %31 = load i32, i32* %30, align 4, !tbaa !5
  %32 = add nsw i32 %31, 1
  store i32 %32, i32* %30, align 4, !tbaa !5
  %33 = icmp eq i32 %31, 0
  br i1 %33, label %34, label %36

34:                                               ; preds = %24
  %35 = call i32 (i8*, ...) @printf(i8* nonnull dereferenceable(1) getelementptr inbounds ([4 x i8], [4 x i8]* @.str.1, i64 0, i64 0), i32 %28)
  br label %36

36:                                               ; preds = %24, %34
  %37 = add nuw nsw i64 %25, 1
  %38 = load i32, i32* %1, align 4, !tbaa !5
  %39 = sext i32 %38 to i64
  %40 = icmp slt i64 %37, %39
  br i1 %40, label %24, label %41, !llvm.loop !9

41:                                               ; preds = %36, %21, %0
  call void @llvm.lifetime.end.p0i8(i64 404, i8* nonnull %4) #4
  call void @llvm.lifetime.end.p0i8(i64 800000, i8* nonnull %6) #4
  call void @llvm.lifetime.end.p0i8(i64 4, i8* nonnull %5) #4
  ret i32 0
}

; Function Attrs: argmemonly mustprogress nofree nosync nounwind willreturn
declare void @llvm.lifetime.start.p0i8(i64 immarg, i8* nocapture) #1

; Function Attrs: nofree nounwind
declare noundef i32 @__isoc99_scanf(i8* nocapture noundef readonly, ...) local_unnamed_addr #2

; Function Attrs: nofree nounwind
declare noundef i32 @printf(i8* nocapture noundef readonly, ...) local_unnamed_addr #2

; Function Attrs: argmemonly mustprogress nofree nosync nounwind willreturn
declare void @llvm.lifetime.end.p0i8(i64 immarg, i8* nocapture) #1

; Function Attrs: argmemonly nofree nounwind willreturn writeonly
declare void @llvm.memset.p0i8.i64(i8* nocapture writeonly, i8, i64, i1 immarg) #3


!llvm.module.flags = !{!0, !1, !2, !3}
!llvm.ident = !{!4}

!0 = !{i32 1, !"wchar_size", i32 4}
!1 = !{i32 7, !"PIC Level", i32 2}
!2 = !{i32 7, !"PIE Level", i32 2}
!3 = !{i32 7, !"uwtable", i32 1}
!4 = !{!"clang version 13.0.0"}
!5 = !{!6, !6, i64 0}
!6 = !{!"int", !7, i64 0}
!7 = !{!"omnipotent char", !8, i64 0}
!8 = !{!"Simple C/C++ TBAA"}
!9 = distinct !{!9, !10, !11}
!10 = !{!"llvm.loop.mustprogress"}
!11 = !{!"llvm.loop.peeled.count", i32 1}
